target datalayout = "e-m:e-p270:32:32-p271:32:32-p272:64:64-i64:64-i128:128-f80:128-n8:16:32:64-S128"
target triple = "x86_64-pc-linux-gnu"

%"class.osgeo::proj::util::BaseObject" = type { ptr, %"class.std::unique_ptr" }
%"class.std::unique_ptr" = type { %"struct.std::__uniq_ptr_data" }
%"struct.std::__uniq_ptr_data" = type { %"class.std::__uniq_ptr_impl" }
%"class.std::__uniq_ptr_impl" = type { %"class.std::tuple" }
%"class.std::tuple" = type { %"struct.std::_Tuple_impl" }
%"struct.std::_Tuple_impl" = type { %"struct.std::_Head_base.1" }
%"struct.std::_Head_base.1" = type { ptr }
%"class.osgeo::proj::common::IdentifiedObject" = type { %"class.osgeo::proj::util::BaseObject", %"class.osgeo::proj::util::IComparable", %"class.osgeo::proj::io::IWKTExportable", %"class.std::unique_ptr.2" }
%"class.osgeo::proj::util::IComparable" = type { ptr }
%"class.osgeo::proj::io::IWKTExportable" = type { ptr }
%"class.std::unique_ptr.2" = type { %"struct.std::__uniq_ptr_data.3" }
%"struct.std::__uniq_ptr_data.3" = type { %"class.std::__uniq_ptr_impl.4" }
%"class.std::__uniq_ptr_impl.4" = type { %"class.std::tuple.5" }
%"class.std::tuple.5" = type { %"struct.std::_Tuple_impl.6" }
%"struct.std::_Tuple_impl.6" = type { %"struct.std::_Head_base.9" }
%"struct.std::_Head_base.9" = type { ptr }
%"class.osgeo::proj::operation::GeneralOperationParameter" = type { %"class.osgeo::proj::common::IdentifiedObject", %"class.std::unique_ptr.215" }
%"class.std::unique_ptr.215" = type { %"struct.std::__uniq_ptr_data.216" }
%"struct.std::__uniq_ptr_data.216" = type { %"class.std::__uniq_ptr_impl.217" }
%"class.std::__uniq_ptr_impl.217" = type { %"class.std::tuple.218" }
%"class.std::tuple.218" = type { %"struct.std::_Tuple_impl.219" }
%"struct.std::_Tuple_impl.219" = type { %"struct.std::_Head_base.222" }
%"struct.std::_Head_base.222" = type { ptr }

; Function Attrs: mustprogress nounwind uwtable
define linkonce_odr hidden void @_ZNSt10_Head_baseILm1ESt14default_deleteIN5osgeo4proj9operation25GeneralOperationParameter7PrivateEELb1EEC2Ev(ptr noundef nonnull align 1 dereferenceable(1) %0) unnamed_addr #1 comdat align 2 {
  %2 = alloca ptr, align 8
  store ptr %0, ptr %2, align 8, !tbaa !672
  ret void
}

; Function Attrs: mustprogress nounwind uwtable
define linkonce_odr hidden void @_ZNSt10_Head_baseILm0EPN5osgeo4proj9operation25GeneralOperationParameter7PrivateELb0EEC2Ev(ptr noundef nonnull align 8 dereferenceable(8) %0) unnamed_addr #1 comdat align 2 {
  %2 = alloca ptr, align 8
  store ptr %0, ptr %2, align 8, !tbaa !668
  %3 = load ptr, ptr %2, align 8
  %4 = getelementptr inbounds nuw %"struct.std::_Head_base.222", ptr %3, i32 0, i32 0
  store ptr null, ptr %4, align 8, !tbaa !670
  ret void
}

; Function Attrs: mustprogress uwtable
define linkonce_odr hidden void @_ZNSt11_Tuple_implILm1EJSt14default_deleteIN5osgeo4proj9operation25GeneralOperationParameter7PrivateEEEEC2Ev(ptr noundef nonnull align 1 dereferenceable(1) %0) unnamed_addr #0 comdat align 2 {
  %2 = alloca ptr, align 8
  store ptr %0, ptr %2, align 8, !tbaa !666
  %3 = load ptr, ptr %2, align 8
  call void @_ZNSt10_Head_baseILm1ESt14default_deleteIN5osgeo4proj9operation25GeneralOperationParameter7PrivateEELb1EEC2Ev(ptr noundef nonnull align 1 dereferenceable(1) %3)
  ret void
}

; Function Attrs: noinline noreturn nounwind uwtable
define linkonce_odr hidden void @__clang_call_terminate(ptr noundef %0) #13 comdat {
  %2 = call ptr @__cxa_begin_catch(ptr %0) #18
  call void @_ZSt9terminatev() #30
  unreachable
}

; Function Attrs: mustprogress uwtable
define linkonce_odr hidden void @_ZNSt11_Tuple_implILm0EJPN5osgeo4proj9operation25GeneralOperationParameter7PrivateESt14default_deleteIS4_EEEC2Ev(ptr noundef nonnull align 8 dereferenceable(8) %0) unnamed_addr #0 comdat align 2 {
  %2 = alloca ptr, align 8
  store ptr %0, ptr %2, align 8, !tbaa !664
  %3 = load ptr, ptr %2, align 8
  call void @_ZNSt11_Tuple_implILm1EJSt14default_deleteIN5osgeo4proj9operation25GeneralOperationParameter7PrivateEEEEC2Ev(ptr noundef nonnull align 1 dereferenceable(1) %3)
  call void @_ZNSt10_Head_baseILm0EPN5osgeo4proj9operation25GeneralOperationParameter7PrivateELb0EEC2Ev(ptr noundef nonnull align 8 dereferenceable(8) %3)
  ret void
}

; Function Attrs: mustprogress nounwind uwtable
define linkonce_odr hidden void @_ZNSt5tupleIJPN5osgeo4proj9operation25GeneralOperationParameter7PrivateESt14default_deleteIS4_EEEC2ILb1ETnNSt9enable_ifIXclsr17_TupleConstraintsIXT_ES5_S7_EE37__is_implicitly_default_constructibleEEbE4typeELb1EEEv(ptr noundef nonnull align 8 dereferenceable(8) %0) unnamed_addr #1 comdat align 2 personality ptr @__gxx_personality_v0 {
  %2 = alloca ptr, align 8
  store ptr %0, ptr %2, align 8, !tbaa !662
  %3 = load ptr, ptr %2, align 8
  invoke void @_ZNSt11_Tuple_implILm0EJPN5osgeo4proj9operation25GeneralOperationParameter7PrivateESt14default_deleteIS4_EEEC2Ev(ptr noundef nonnull align 8 dereferenceable(8) %3)
          to label %4 unwind label %5

4:                                                ; preds = %1
  ret void

5:                                                ; preds = %1
  %6 = landingpad { ptr, i32 }
          catch ptr null
  %7 = extractvalue { ptr, i32 } %6, 0
  call void @__clang_call_terminate(ptr %7) #30
  unreachable
}

; Function Attrs: mustprogress nounwind uwtable
define linkonce_odr hidden void @_ZNSt15__uniq_ptr_implIN5osgeo4proj9operation25GeneralOperationParameter7PrivateESt14default_deleteIS4_EEC2Ev(ptr noundef nonnull align 8 dereferenceable(8) %0) unnamed_addr #1 comdat align 2 {
  %2 = alloca ptr, align 8
  store ptr %0, ptr %2, align 8, !tbaa !660
  %3 = load ptr, ptr %2, align 8
  %4 = getelementptr inbounds nuw %"class.std::__uniq_ptr_impl.217", ptr %3, i32 0, i32 0
  call void @_ZNSt5tupleIJPN5osgeo4proj9operation25GeneralOperationParameter7PrivateESt14default_deleteIS4_EEEC2ILb1ETnNSt9enable_ifIXclsr17_TupleConstraintsIXT_ES5_S7_EE37__is_implicitly_default_constructibleEEbE4typeELb1EEEv(ptr noundef nonnull align 8 dereferenceable(8) %4) #18
  ret void
}

; Function Attrs: inlinehint mustprogress nounwind uwtable
define linkonce_odr hidden void @_ZNSt15__uniq_ptr_dataIN5osgeo4proj9operation25GeneralOperationParameter7PrivateESt14default_deleteIS4_ELb1ELb1EEC2Ev(ptr noundef nonnull align 8 dereferenceable(8) %0) unnamed_addr #5 comdat align 2 {
  %2 = alloca ptr, align 8
  store ptr %0, ptr %2, align 8, !tbaa !658
  %3 = load ptr, ptr %2, align 8
  call void @_ZNSt15__uniq_ptr_implIN5osgeo4proj9operation25GeneralOperationParameter7PrivateESt14default_deleteIS4_EEC2Ev(ptr noundef nonnull align 8 dereferenceable(8) %3) #18
  ret void
}

; Function Attrs: mustprogress nounwind uwtable
define linkonce_odr hidden void @_ZNSt10unique_ptrIN5osgeo4proj9operation25GeneralOperationParameter7PrivateESt14default_deleteIS4_EEC2IS6_vEEDn(ptr noundef nonnull align 8 dereferenceable(8) %0, ptr %1) unnamed_addr #1 comdat align 2 {
  %3 = alloca ptr, align 8
  %4 = alloca ptr, align 8
  store ptr %0, ptr %3, align 8, !tbaa !300
  store ptr %1, ptr %4, align 8, !tbaa !94
  %5 = load ptr, ptr %3, align 8
  %6 = getelementptr inbounds nuw %"class.std::unique_ptr.215", ptr %5, i32 0, i32 0
  call void @llvm.memset.p0.i64(ptr align 8 %6, i8 0, i64 8, i1 false)
  call void @_ZNSt15__uniq_ptr_dataIN5osgeo4proj9operation25GeneralOperationParameter7PrivateESt14default_deleteIS4_ELb1ELb1EEC2Ev(ptr noundef nonnull align 8 dereferenceable(8) %6) #18
  ret void
}

; Function Attrs: mustprogress uwtable
define hidden void @_ZN5osgeo4proj9operation25GeneralOperationParameterC2Ev(ptr noundef nonnull align 8 dereferenceable(48) %0) unnamed_addr #0 align 2 {
  %2 = alloca ptr, align 8
  store ptr %0, ptr %2, align 8, !tbaa !298
  %3 = load ptr, ptr %2, align 8
  call void @_ZN5osgeo4proj6common16IdentifiedObjectC2Ev(ptr noundef nonnull align 8 dereferenceable(40) %3)
  store ptr getelementptr inbounds inrange(-16, 32) ({ [6 x ptr], [5 x ptr], [5 x ptr] }, ptr @_ZTVN5osgeo4proj9operation25GeneralOperationParameterE, i32 0, i32 0, i32 2), ptr %3, align 8, !tbaa !10
  %4 = getelementptr inbounds i8, ptr %3, i64 16
  store ptr getelementptr inbounds inrange(-16, 24) ({ [6 x ptr], [5 x ptr], [5 x ptr] }, ptr @_ZTVN5osgeo4proj9operation25GeneralOperationParameterE, i32 0, i32 1, i32 2), ptr %4, align 8, !tbaa !10
  %5 = getelementptr inbounds i8, ptr %3, i64 24
  store ptr getelementptr inbounds inrange(-16, 24) ({ [6 x ptr], [5 x ptr], [5 x ptr] }, ptr @_ZTVN5osgeo4proj9operation25GeneralOperationParameterE, i32 0, i32 2, i32 2), ptr %5, align 8, !tbaa !10
  %6 = getelementptr inbounds nuw %"class.osgeo::proj::operation::GeneralOperationParameter", ptr %3, i32 0, i32 1
  call void @_ZNSt10unique_ptrIN5osgeo4proj9operation25GeneralOperationParameter7PrivateESt14default_deleteIS4_EEC2IS6_vEEDn(ptr noundef nonnull align 8 dereferenceable(8) %6, ptr null) #18
  ret void
}